target datalayout = "e-m:e-p270:32:32-p271:32:32-p272:64:64-i64:64-i128:128-f80:128-n8:16:32:64-S128"
target triple = "x86_64-pc-linux-gnu"

%"class.cv::Rect_" = type { i32, i32, i32, i32 }

; Function Attrs: mustprogress uwtable
define void @_ZN2cv6detail7Blender7prepareERKSt6vectorINS_6Point_IiEESaIS4_EERKS2_INS_5Size_IiEESaISA_EE(ptr noundef nonnull align 8 dereferenceable(184) %0, ptr noundef nonnull align 8 dereferenceable(24) %1, ptr noundef nonnull align 8 dereferenceable(24) %2) unnamed_addr #4 align 2 {
  %4 = alloca ptr, align 8
  %5 = alloca ptr, align 8
  %6 = alloca ptr, align 8
  %7 = alloca %"class.cv::Rect_", align 4
  store ptr %0, ptr %4, align 8, !tbaa !24
  store ptr %1, ptr %5, align 8, !tbaa !26
  store ptr %2, ptr %6, align 8, !tbaa !28
  %8 = load ptr, ptr %4, align 8
  %9 = load ptr, ptr %5, align 8, !tbaa !26
  %10 = load ptr, ptr %6, align 8, !tbaa !28
  %11 = call { i64, i64 } @_ZN2cv6detail9resultRoiERKSt6vectorINS_6Point_IiEESaIS3_EERKS1_INS_5Size_IiEESaIS9_EE(ptr noundef nonnull align 8 dereferenceable(24) %9, ptr noundef nonnull align 8 dereferenceable(24) %10)
  %12 = getelementptr inbounds nuw { i64, i64 }, ptr %7, i32 0, i32 0
  %13 = extractvalue { i64, i64 } %11, 0
  store i64 %13, ptr %12, align 4
  %14 = getelementptr inbounds nuw { i64, i64 }, ptr %7, i32 0, i32 1
  %15 = extractvalue { i64, i64 } %11, 1
  store i64 %15, ptr %14, align 4
  %16 = getelementptr inbounds nuw { i64, i64 }, ptr %7, i32 0, i32 0
  %17 = load i64, ptr %16, align 4
  %18 = getelementptr inbounds nuw { i64, i64 }, ptr %7, i32 0, i32 1
  %19 = load i64, ptr %18, align 4
  %20 = load ptr, ptr %8, align 8, !tbaa !30
  %21 = getelementptr inbounds ptr, ptr %20, i64 3
  %22 = load ptr, ptr %21, align 8
  call void %22(ptr noundef nonnull align 8 dereferenceable(184) %8, i64 %17, i64 %19)
  ret void
}