; Function Attrs: mustprogress uwtable
define void @_ZN2cv6detail7Blender7prepareERKSt6vectorINS_6Point_IiEESaIS4_EERKS2_INS_5Size_IiEESaISA_EE(ptr noundef nonnull align 8 dereferenceable(184) %0, ptr noundef nonnull align 8 dereferenceable(24) %1, ptr noundef nonnull align 8 dereferenceable(24) %2) unnamed_addr #3 align 2 {
  %4 = tail call { i64, i64 } @_ZN2cv6detail9resultRoiERKSt6vectorINS_6Point_IiEESaIS3_EERKS1_INS_5Size_IiEESaIS9_EE(ptr noundef nonnull align 8 dereferenceable(24) %1, ptr noundef nonnull align 8 dereferenceable(24) %2)
  %5 = extractvalue { i64, i64 } %4, 0
  %6 = extractvalue { i64, i64 } %4, 1
  %7 = load ptr, ptr %0, align 8, !tbaa !14
  %8 = getelementptr inbounds nuw i8, ptr %7, i64 24
  %9 = load ptr, ptr %8, align 8
  tail call void %9(ptr noundef nonnull align 8 dereferenceable(184) %0, i64 %5, i64 %6)
  ret void
}